target datalayout = "e-m:e-p270:32:32-p271:32:32-p272:64:64-i64:64-i128:128-f80:128-n8:16:32:64-S128"
target triple = "x86_64-pc-linux-gnu"

%struct._generic_ARKInterp = type { ptr, ptr }
%struct._generic_ARKInterpOps = type { ptr, ptr, ptr, ptr, ptr, ptr, ptr }

; Function Attrs: nounwind uwtable
define i32 @arkInterpEvaluate(ptr noundef %0, ptr noundef %1, double noundef %2, i32 noundef %3, i32 noundef %4, ptr noundef %5) #0 {
  %7 = alloca i32, align 4
  %8 = alloca ptr, align 8
  %9 = alloca ptr, align 8
  %10 = alloca double, align 8
  %11 = alloca i32, align 4
  %12 = alloca i32, align 4
  %13 = alloca ptr, align 8
  store ptr %0, ptr %8, align 8, !tbaa !3
  store ptr %1, ptr %9, align 8, !tbaa !8
  store double %2, ptr %10, align 8, !tbaa !27
  store i32 %3, ptr %11, align 4, !tbaa !24
  store i32 %4, ptr %12, align 4, !tbaa !24
  store ptr %5, ptr %13, align 8, !tbaa !13
  %14 = load ptr, ptr %9, align 8, !tbaa !8
  %15 = icmp eq ptr %14, null
  br i1 %15, label %16, label %17

16:                                               ; preds = %6
  store i32 0, ptr %7, align 4
  br label %30

17:                                               ; preds = %6
  %18 = load ptr, ptr %9, align 8, !tbaa !8
  %19 = getelementptr inbounds nuw %struct._generic_ARKInterp, ptr %18, i32 0, i32 1
  %20 = load ptr, ptr %19, align 8, !tbaa !15
  %21 = getelementptr inbounds nuw %struct._generic_ARKInterpOps, ptr %20, i32 0, i32 6
  %22 = load ptr, ptr %21, align 8, !tbaa !31
  %23 = load ptr, ptr %8, align 8, !tbaa !3
  %24 = load ptr, ptr %9, align 8, !tbaa !8
  %25 = load double, ptr %10, align 8, !tbaa !27
  %26 = load i32, ptr %11, align 4, !tbaa !24
  %27 = load i32, ptr %12, align 4, !tbaa !24
  %28 = load ptr, ptr %13, align 8, !tbaa !13
  %29 = call i32 %22(ptr noundef %23, ptr noundef %24, double noundef %25, i32 noundef %26, i32 noundef %27, ptr noundef %28)
  store i32 %29, ptr %7, align 4
  br label %30

30:                                               ; preds = %17, %16
  %31 = load i32, ptr %7, align 4
  ret i32 %31
}