; Function Attrs: nounwind uwtable
define i32 @arkInterpEvaluate(ptr noundef %0, ptr noundef %1, double noundef %2, i32 noundef %3, i32 noundef %4, ptr noundef %5) local_unnamed_addr #0 {
  %7 = icmp eq ptr %1, null
  br i1 %7, label %14, label %8

8:                                                ; preds = %6
  %9 = getelementptr inbounds nuw i8, ptr %1, i64 8
  %10 = load ptr, ptr %9, align 8, !tbaa !3
  %11 = getelementptr inbounds nuw i8, ptr %10, i64 48
  %12 = load ptr, ptr %11, align 8, !tbaa !16
  %13 = tail call i32 %12(ptr noundef %0, ptr noundef nonnull %1, double noundef %2, i32 noundef %3, i32 noundef %4, ptr noundef %5) #14
  br label %14

14:                                               ; preds = %6, %8
  %.0 = phi i32 [ %13, %8 ], [ 0, %6 ]
  ret i32 %.0
}